target datalayout = "e-m:e-p270:32:32-p271:32:32-p272:64:64-i64:64-i128:128-f80:128-n8:16:32:64-S128"
target triple = "x86_64-pc-linux-gnu"

%"class.llvm::SPIRVObjectWriter" = type <{ %"class.llvm::MCObjectWriter", %"struct.llvm::support::endian::Writer", %"class.std::unique_ptr", %"struct.llvm::SPIRVObjectWriter::VersionInfoType", [4 x i8] }>
%"class.llvm::MCObjectWriter" = type { ptr, %"class.llvm::SmallVector", %"class.std::__cxx11::basic_string", %"class.std::vector", i8, i8, %"class.llvm::SmallVector.3" }
%"class.llvm::SmallVector" = type { %"class.llvm::SmallVectorImpl" }
%"class.llvm::SmallVectorImpl" = type { %"class.llvm::SmallVectorTemplateBase" }
%"class.llvm::SmallVectorTemplateBase" = type { %"class.llvm::SmallVectorTemplateCommon" }
%"class.llvm::SmallVectorTemplateCommon" = type { %"class.llvm::SmallVectorBase" }
%"class.llvm::SmallVectorBase" = type { ptr, i32, i32 }
%"class.std::__cxx11::basic_string" = type { %"struct.std::__cxx11::basic_string<char>::_Alloc_hider", i64, %union.anon }
%"struct.std::__cxx11::basic_string<char>::_Alloc_hider" = type { ptr }
%union.anon = type { i64, [8 x i8] }
%"class.std::vector" = type { %"struct.std::_Vector_base" }
%"struct.std::_Vector_base" = type { %"struct.std::_Vector_base<const llvm::MCSymbol *, std::allocator<const llvm::MCSymbol *>>::_Vector_impl" }
%"struct.std::_Vector_base<const llvm::MCSymbol *, std::allocator<const llvm::MCSymbol *>>::_Vector_impl" = type { %"struct.std::_Vector_base<const llvm::MCSymbol *, std::allocator<const llvm::MCSymbol *>>::_Vector_impl_data" }
%"struct.std::_Vector_base<const llvm::MCSymbol *, std::allocator<const llvm::MCSymbol *>>::_Vector_impl_data" = type { ptr, ptr, ptr }
%"class.llvm::SmallVector.3" = type { %"class.llvm::SmallVectorImpl.4" }
%"class.llvm::SmallVectorImpl.4" = type { %"class.llvm::SmallVectorTemplateBase.5" }
%"class.llvm::SmallVectorTemplateBase.5" = type { %"class.llvm::SmallVectorTemplateCommon.6" }
%"class.llvm::SmallVectorTemplateCommon.6" = type { %"class.llvm::SmallVectorBase" }
%"struct.llvm::support::endian::Writer" = type <{ ptr, i32, [4 x i8] }>
%"class.std::unique_ptr" = type { %"struct.std::__uniq_ptr_data" }
%"struct.std::__uniq_ptr_data" = type { %"class.std::__uniq_ptr_impl" }
%"class.std::__uniq_ptr_impl" = type { %"class.std::tuple" }
%"class.std::tuple" = type { %"struct.std::_Tuple_impl" }
%"struct.std::_Tuple_impl" = type { %"struct.std::_Head_base.9" }
%"struct.std::_Head_base.9" = type { ptr }
%"struct.llvm::SPIRVObjectWriter::VersionInfoType" = type { i32, i32, i32 }

; Function Attrs: mustprogress nounwind uwtable
define dso_local void @_ZN4llvm17SPIRVObjectWriter15setBuildVersionEjjj(ptr noundef nonnull align 8 dereferenceable(144) %0, i32 noundef %1, i32 noundef %2, i32 noundef %3) #0 align 2 {
  %5 = alloca ptr, align 8
  %6 = alloca i32, align 4
  %7 = alloca i32, align 4
  %8 = alloca i32, align 4
  store ptr %0, ptr %5, align 8
  store i32 %1, ptr %6, align 4
  store i32 %2, ptr %7, align 4
  store i32 %3, ptr %8, align 4
  %9 = load ptr, ptr %5, align 8
  %10 = load i32, ptr %6, align 4
  %11 = getelementptr inbounds nuw %"class.llvm::SPIRVObjectWriter", ptr %9, i32 0, i32 3
  %12 = getelementptr inbounds nuw %"struct.llvm::SPIRVObjectWriter::VersionInfoType", ptr %11, i32 0, i32 0
  store i32 %10, ptr %12, align 8
  %13 = load i32, ptr %7, align 4
  %14 = getelementptr inbounds nuw %"class.llvm::SPIRVObjectWriter", ptr %9, i32 0, i32 3
  %15 = getelementptr inbounds nuw %"struct.llvm::SPIRVObjectWriter::VersionInfoType", ptr %14, i32 0, i32 1
  store i32 %13, ptr %15, align 4
  %16 = load i32, ptr %8, align 4
  %17 = getelementptr inbounds nuw %"class.llvm::SPIRVObjectWriter", ptr %9, i32 0, i32 3
  %18 = getelementptr inbounds nuw %"struct.llvm::SPIRVObjectWriter::VersionInfoType", ptr %17, i32 0, i32 2
  store i32 %16, ptr %18, align 8
  ret void
}