; Function Attrs: mustprogress nofree norecurse nosync nounwind willreturn memory(argmem: write) uwtable
define dso_local void @_ZN4llvm17SPIRVObjectWriter15setBuildVersionEjjj(ptr nocapture noundef nonnull writeonly align 8 dereferenceable(144) %0, i32 noundef %1, i32 noundef %2, i32 noundef %3) local_unnamed_addr #1 align 2 {
  %5 = getelementptr inbounds nuw i8, ptr %0, i64 128
  store i32 %1, ptr %5, align 8
  %6 = getelementptr inbounds i8, ptr %0, i64 132
  store i32 %2, ptr %6, align 4
  %7 = getelementptr inbounds i8, ptr %0, i64 136
  store i32 %3, ptr %7, align 8
  ret void
}